target datalayout = "e-m:e-p270:32:32-p271:32:32-p272:64:64-i64:64-i128:128-f80:128-n8:16:32:64-S128"
target triple = "x86_64-pc-linux-gnu"

%"class.ncnn::Layer" = type { ptr, i8, i8, i8, i8, i8, i8, i8, i8, i8, i8, i8, i8, i8, i8, i8, i8, i8, i8, i8, i8, i32, ptr, i32, %"class.std::__cxx11::basic_string", %"class.std::__cxx11::basic_string", %"class.std::vector", %"class.std::vector", %"class.std::vector.3", %"class.std::vector.3" }
%"class.std::__cxx11::basic_string" = type { %"struct.std::__cxx11::basic_string<char>::_Alloc_hider", i64, %union.anon }
%"struct.std::__cxx11::basic_string<char>::_Alloc_hider" = type { ptr }
%union.anon = type { i64, [8 x i8] }
%"class.std::vector" = type { %"struct.std::_Vector_base" }
%"struct.std::_Vector_base" = type { %"struct.std::_Vector_base<int, std::allocator<int>>::_Vector_impl" }
%"struct.std::_Vector_base<int, std::allocator<int>>::_Vector_impl" = type { %"struct.std::_Vector_base<int, std::allocator<int>>::_Vector_impl_data" }
%"struct.std::_Vector_base<int, std::allocator<int>>::_Vector_impl_data" = type { ptr, ptr, ptr }
%"class.std::vector.3" = type { %"struct.std::_Vector_base.4" }
%"struct.std::_Vector_base.4" = type { %"struct.std::_Vector_base<ncnn::Mat, std::allocator<ncnn::Mat>>::_Vector_impl" }
%"struct.std::_Vector_base<ncnn::Mat, std::allocator<ncnn::Mat>>::_Vector_impl" = type { %"struct.std::_Vector_base<ncnn::Mat, std::allocator<ncnn::Mat>>::_Vector_impl_data" }
%"struct.std::_Vector_base<ncnn::Mat, std::allocator<ncnn::Mat>>::_Vector_impl_data" = type { ptr, ptr, ptr }
%"class.ncnn::Mat" = type { ptr, ptr, i64, i32, ptr, i32, i32, i32, i32, i32, i64 }
%"class.ncnn::BinaryOp" = type <{ %"class.ncnn::Layer", i32, i32, float, [4 x i8] }>

; Function Attrs: noreturn nounwind uwtable
define linkonce_odr hidden void @__clang_call_terminate(ptr noundef %0) #4 comdat {
  %2 = call ptr @__cxa_begin_catch(ptr %0) #12
  call void @_ZSt9terminatev() #13
  unreachable
}

; Function Attrs: mustprogress uwtable
define internal void @_ZN4ncnnL24binary_op_scalar_inplaceERNS_3MatEfiRKNS_6OptionE(ptr noundef nonnull align 8 dereferenceable(72) %0, float noundef nofpclass(nan inf) %1, i32 noundef %2, ptr noundef nonnull align 8 dereferenceable(64) %3) #0 personality ptr @__gxx_personality_v0 {
  %5 = alloca i64, align 8
  %6 = alloca i32, align 4
  %7 = alloca ptr, align 8
  %8 = alloca i32, align 4
  %9 = alloca i32, align 4
  %10 = alloca i32, align 4
  %11 = alloca ptr, align 8
  %12 = alloca i64, align 8
  %13 = alloca i32, align 4
  %14 = alloca ptr, align 8
  %15 = alloca ptr, align 8
  %16 = alloca ptr, align 8
  %17 = alloca ptr, align 8
  %18 = alloca i32, align 4
  %19 = alloca i32, align 4
  %20 = alloca ptr, align 8
  %21 = alloca ptr, align 8
  %22 = alloca ptr, align 8
  %23 = alloca i32, align 4
  %24 = alloca i1, align 1
  %25 = alloca ptr, align 8
  %26 = alloca ptr, align 8
  %27 = alloca i32, align 4
  %28 = alloca i32, align 4
  %29 = alloca ptr, align 8
  %30 = alloca ptr, align 8
  %31 = alloca float, align 4
  %32 = alloca i32, align 4
  %33 = alloca ptr, align 8
  %34 = alloca i32, align 4
  %35 = alloca i32, align 4
  %36 = alloca i32, align 4
  %37 = alloca ptr, align 8
  %38 = alloca %"class.ncnn::Mat", align 8
  store ptr %0, ptr %30, align 8
  store float %1, ptr %31, align 4
  store i32 %2, ptr %32, align 4
  store ptr %3, ptr %33, align 8
  %39 = load ptr, ptr %30, align 8
  %40 = getelementptr inbounds nuw %"class.ncnn::Mat", ptr %39, i32 0, i32 9
  %41 = load i32, ptr %40, align 8
  store i32 %41, ptr %34, align 4
  %42 = load ptr, ptr %30, align 8
  %43 = getelementptr inbounds nuw %"class.ncnn::Mat", ptr %42, i32 0, i32 6
  %44 = load i32, ptr %43, align 4
  %45 = load ptr, ptr %30, align 8
  %46 = getelementptr inbounds nuw %"class.ncnn::Mat", ptr %45, i32 0, i32 7
  %47 = load i32, ptr %46, align 8
  %48 = mul nsw i32 %44, %47
  %49 = load ptr, ptr %30, align 8
  %50 = getelementptr inbounds nuw %"class.ncnn::Mat", ptr %49, i32 0, i32 8
  %51 = load i32, ptr %50, align 4
  %52 = mul nsw i32 %48, %51
  %53 = load ptr, ptr %30, align 8
  %54 = getelementptr inbounds nuw %"class.ncnn::Mat", ptr %53, i32 0, i32 3
  %55 = load i32, ptr %54, align 8
  %56 = mul nsw i32 %52, %55
  store i32 %56, ptr %35, align 4
  store i32 0, ptr %36, align 4
  br label %57

57:                                               ; preds = %244, %4
  %58 = load i32, ptr %36, align 4
  %59 = load i32, ptr %34, align 4
  %60 = icmp slt i32 %58, %59
  br i1 %60, label %61, label %247

61:                                               ; preds = %57
  %62 = load ptr, ptr %30, align 8
  %63 = load i32, ptr %36, align 4
  call void @llvm.experimental.noalias.scope.decl(metadata !55)
  store ptr %38, ptr %21, align 8, !noalias !55
  store ptr %62, ptr %22, align 8, !noalias !55
  store i32 %63, ptr %23, align 4, !noalias !55
  %64 = load ptr, ptr %22, align 8, !noalias !55
  store i1 false, ptr %24, align 1, !noalias !55
  %65 = getelementptr inbounds nuw %"class.ncnn::Mat", ptr %64, i32 0, i32 6
  %66 = load i32, ptr %65, align 4
  %67 = getelementptr inbounds nuw %"class.ncnn::Mat", ptr %64, i32 0, i32 7
  %68 = load i32, ptr %67, align 8
  %69 = getelementptr inbounds nuw %"class.ncnn::Mat", ptr %64, i32 0, i32 8
  %70 = load i32, ptr %69, align 4
  %71 = load ptr, ptr %64, align 8
  %72 = getelementptr inbounds nuw %"class.ncnn::Mat", ptr %64, i32 0, i32 10
  %73 = load i64, ptr %72, align 8
  %74 = load i32, ptr %23, align 4, !noalias !55
  %75 = sext i32 %74 to i64
  %76 = mul i64 %73, %75
  %77 = getelementptr inbounds nuw %"class.ncnn::Mat", ptr %64, i32 0, i32 2
  %78 = load i64, ptr %77, align 8
  %79 = mul i64 %76, %78
  %80 = getelementptr inbounds i8, ptr %71, i64 %79
  %81 = getelementptr inbounds nuw %"class.ncnn::Mat", ptr %64, i32 0, i32 2
  %82 = load i64, ptr %81, align 8
  %83 = getelementptr inbounds nuw %"class.ncnn::Mat", ptr %64, i32 0, i32 3
  %84 = load i32, ptr %83, align 8
  %85 = getelementptr inbounds nuw %"class.ncnn::Mat", ptr %64, i32 0, i32 4
  %86 = load ptr, ptr %85, align 8
  store ptr %38, ptr %7, align 8
  store i32 %66, ptr %8, align 4
  store i32 %68, ptr %9, align 4
  store i32 %70, ptr %10, align 4
  store ptr %80, ptr %11, align 8
  store i64 %82, ptr %12, align 8
  store i32 %84, ptr %13, align 4
  store ptr %86, ptr %14, align 8
  %87 = load ptr, ptr %7, align 8
  %88 = load ptr, ptr %11, align 8
  store ptr %88, ptr %87, align 8
  %89 = getelementptr inbounds nuw %"class.ncnn::Mat", ptr %87, i32 0, i32 1
  store ptr null, ptr %89, align 8
  %90 = getelementptr inbounds nuw %"class.ncnn::Mat", ptr %87, i32 0, i32 2
  %91 = load i64, ptr %12, align 8
  store i64 %91, ptr %90, align 8
  %92 = getelementptr inbounds nuw %"class.ncnn::Mat", ptr %87, i32 0, i32 3
  %93 = load i32, ptr %13, align 4
  store i32 %93, ptr %92, align 8
  %94 = getelementptr inbounds nuw %"class.ncnn::Mat", ptr %87, i32 0, i32 4
  %95 = load ptr, ptr %14, align 8
  store ptr %95, ptr %94, align 8
  %96 = getelementptr inbounds nuw %"class.ncnn::Mat", ptr %87, i32 0, i32 5
  store i32 3, ptr %96, align 8
  %97 = getelementptr inbounds nuw %"class.ncnn::Mat", ptr %87, i32 0, i32 6
  %98 = load i32, ptr %8, align 4
  store i32 %98, ptr %97, align 4
  %99 = getelementptr inbounds nuw %"class.ncnn::Mat", ptr %87, i32 0, i32 7
  %100 = load i32, ptr %9, align 4
  store i32 %100, ptr %99, align 8
  %101 = getelementptr inbounds nuw %"class.ncnn::Mat", ptr %87, i32 0, i32 8
  store i32 1, ptr %101, align 4
  %102 = getelementptr inbounds nuw %"class.ncnn::Mat", ptr %87, i32 0, i32 9
  %103 = load i32, ptr %10, align 4
  store i32 %103, ptr %102, align 8
  %104 = getelementptr inbounds nuw %"class.ncnn::Mat", ptr %87, i32 0, i32 6
  %105 = load i32, ptr %104, align 4
  %106 = sext i32 %105 to i64
  %107 = getelementptr inbounds nuw %"class.ncnn::Mat", ptr %87, i32 0, i32 7
  %108 = load i32, ptr %107, align 8
  %109 = sext i32 %108 to i64
  %110 = mul i64 %106, %109
  %111 = getelementptr inbounds nuw %"class.ncnn::Mat", ptr %87, i32 0, i32 2
  %112 = load i64, ptr %111, align 8
  %113 = mul i64 %110, %112
  store i64 %113, ptr %5, align 8
  store i32 16, ptr %6, align 4
  %114 = load i64, ptr %5, align 8
  %115 = load i32, ptr %6, align 4
  %116 = sext i32 %115 to i64
  %117 = add i64 %114, %116
  %118 = sub i64 %117, 1
  %119 = load i32, ptr %6, align 4
  %120 = sub nsw i32 0, %119
  %121 = sext i32 %120 to i64
  %122 = and i64 %118, %121
  %123 = getelementptr inbounds nuw %"class.ncnn::Mat", ptr %87, i32 0, i32 2
  %124 = load i64, ptr %123, align 8
  %125 = udiv i64 %122, %124
  %126 = getelementptr inbounds nuw %"class.ncnn::Mat", ptr %87, i32 0, i32 10
  store i64 %125, ptr %126, align 8
  %127 = getelementptr inbounds nuw %"class.ncnn::Mat", ptr %64, i32 0, i32 5
  %128 = load i32, ptr %127, align 8
  %129 = sub nsw i32 %128, 1
  %130 = getelementptr inbounds nuw %"class.ncnn::Mat", ptr %38, i32 0, i32 5
  store i32 %129, ptr %130, align 8, !alias.scope !55
  %131 = getelementptr inbounds nuw %"class.ncnn::Mat", ptr %64, i32 0, i32 5
  %132 = load i32, ptr %131, align 8
  %133 = icmp eq i32 %132, 4
  br i1 %133, label %134, label %143

134:                                              ; preds = %61
  %135 = getelementptr inbounds nuw %"class.ncnn::Mat", ptr %64, i32 0, i32 6
  %136 = load i32, ptr %135, align 4
  %137 = sext i32 %136 to i64
  %138 = getelementptr inbounds nuw %"class.ncnn::Mat", ptr %64, i32 0, i32 7
  %139 = load i32, ptr %138, align 8
  %140 = sext i32 %139 to i64
  %141 = mul i64 %137, %140
  %142 = getelementptr inbounds nuw %"class.ncnn::Mat", ptr %38, i32 0, i32 10
  store i64 %141, ptr %142, align 8, !alias.scope !55
  br label %143

143:                                              ; preds = %134, %61
  store i1 true, ptr %24, align 1, !noalias !55
  %144 = load i1, ptr %24, align 1, !noalias !55
  br i1 %144, label %191, label %145

145:                                              ; preds = %143
  store ptr %38, ptr %20, align 8, !noalias !55
  %146 = load ptr, ptr %20, align 8, !noalias !55
  store ptr %146, ptr %17, align 8, !noalias !55
  %147 = load ptr, ptr %17, align 8, !noalias !55
  %148 = getelementptr inbounds nuw %"class.ncnn::Mat", ptr %147, i32 0, i32 1
  %149 = load ptr, ptr %148, align 8
  %150 = icmp ne ptr %149, null
  br i1 %150, label %151, label %178

151:                                              ; preds = %145
  %152 = getelementptr inbounds nuw %"class.ncnn::Mat", ptr %147, i32 0, i32 1
  %153 = load ptr, ptr %152, align 8
  store i32 -1, ptr %18, align 4, !noalias !55
  %154 = load i32, ptr %18, align 4, !noalias !55
  %155 = atomicrmw add ptr %153, i32 %154 acq_rel, align 4
  store i32 %155, ptr %19, align 4, !noalias !55
  %156 = load i32, ptr %19, align 4, !noalias !55
  %157 = icmp eq i32 %156, 1
  br i1 %157, label %158, label %178

158:                                              ; preds = %151
  %159 = getelementptr inbounds nuw %"class.ncnn::Mat", ptr %147, i32 0, i32 4
  %160 = load ptr, ptr %159, align 8
  %161 = icmp ne ptr %160, null
  br i1 %161, label %162, label %170

162:                                              ; preds = %158
  %163 = getelementptr inbounds nuw %"class.ncnn::Mat", ptr %147, i32 0, i32 4
  %164 = load ptr, ptr %163, align 8
  %165 = load ptr, ptr %147, align 8
  %166 = load ptr, ptr %164, align 8
  %167 = getelementptr inbounds ptr, ptr %166, i64 3
  %168 = load ptr, ptr %167, align 8
  invoke void %168(ptr noundef nonnull align 8 dereferenceable(8) %164, ptr noundef %165)
          to label %169 unwind label %188

169:                                              ; preds = %162
  br label %177

170:                                              ; preds = %158
  %171 = load ptr, ptr %147, align 8
  store ptr %171, ptr %16, align 8, !noalias !55
  %172 = load ptr, ptr %16, align 8, !noalias !55
  %173 = icmp ne ptr %172, null
  br i1 %173, label %174, label %176

174:                                              ; preds = %170
  %175 = load ptr, ptr %16, align 8, !noalias !55
  call void @free(ptr noundef %175) #12
  br label %176

176:                                              ; preds = %174, %170
  br label %177

177:                                              ; preds = %176, %169
  br label %178

178:                                              ; preds = %177, %151, %145
  store ptr null, ptr %147, align 8
  %179 = getelementptr inbounds nuw %"class.ncnn::Mat", ptr %147, i32 0, i32 2
  store i64 0, ptr %179, align 8
  %180 = getelementptr inbounds nuw %"class.ncnn::Mat", ptr %147, i32 0, i32 3
  store i32 0, ptr %180, align 8
  %181 = getelementptr inbounds nuw %"class.ncnn::Mat", ptr %147, i32 0, i32 5
  store i32 0, ptr %181, align 8
  %182 = getelementptr inbounds nuw %"class.ncnn::Mat", ptr %147, i32 0, i32 6
  store i32 0, ptr %182, align 4
  %183 = getelementptr inbounds nuw %"class.ncnn::Mat", ptr %147, i32 0, i32 7
  store i32 0, ptr %183, align 8
  %184 = getelementptr inbounds nuw %"class.ncnn::Mat", ptr %147, i32 0, i32 8
  store i32 0, ptr %184, align 4
  %185 = getelementptr inbounds nuw %"class.ncnn::Mat", ptr %147, i32 0, i32 9
  store i32 0, ptr %185, align 8
  %186 = getelementptr inbounds nuw %"class.ncnn::Mat", ptr %147, i32 0, i32 10
  store i64 0, ptr %186, align 8
  %187 = getelementptr inbounds nuw %"class.ncnn::Mat", ptr %147, i32 0, i32 1
  store ptr null, ptr %187, align 8
  br label %191

188:                                              ; preds = %162
  %189 = landingpad { ptr, i32 }
          catch ptr null
  %190 = extractvalue { ptr, i32 } %189, 0
  call void @__clang_call_terminate(ptr %190) #13
  unreachable

191:                                              ; preds = %178, %143
  store ptr %38, ptr %15, align 8
  %192 = load ptr, ptr %15, align 8
  %193 = load ptr, ptr %192, align 8
  store ptr %38, ptr %29, align 8
  %194 = load ptr, ptr %29, align 8
  store ptr %194, ptr %26, align 8
  %195 = load ptr, ptr %26, align 8
  %196 = getelementptr inbounds nuw %"class.ncnn::Mat", ptr %195, i32 0, i32 1
  %197 = load ptr, ptr %196, align 8
  %198 = icmp ne ptr %197, null
  br i1 %198, label %199, label %226

199:                                              ; preds = %191
  %200 = getelementptr inbounds nuw %"class.ncnn::Mat", ptr %195, i32 0, i32 1
  %201 = load ptr, ptr %200, align 8
  store i32 -1, ptr %27, align 4
  %202 = load i32, ptr %27, align 4
  %203 = atomicrmw add ptr %201, i32 %202 acq_rel, align 4
  store i32 %203, ptr %28, align 4
  %204 = load i32, ptr %28, align 4
  %205 = icmp eq i32 %204, 1
  br i1 %205, label %206, label %226

206:                                              ; preds = %199
  %207 = getelementptr inbounds nuw %"class.ncnn::Mat", ptr %195, i32 0, i32 4
  %208 = load ptr, ptr %207, align 8
  %209 = icmp ne ptr %208, null
  br i1 %209, label %210, label %218

210:                                              ; preds = %206
  %211 = getelementptr inbounds nuw %"class.ncnn::Mat", ptr %195, i32 0, i32 4
  %212 = load ptr, ptr %211, align 8
  %213 = load ptr, ptr %195, align 8
  %214 = load ptr, ptr %212, align 8
  %215 = getelementptr inbounds ptr, ptr %214, i64 3
  %216 = load ptr, ptr %215, align 8
  invoke void %216(ptr noundef nonnull align 8 dereferenceable(8) %212, ptr noundef %213)
          to label %217 unwind label %236

217:                                              ; preds = %210
  br label %225

218:                                              ; preds = %206
  %219 = load ptr, ptr %195, align 8
  store ptr %219, ptr %25, align 8
  %220 = load ptr, ptr %25, align 8
  %221 = icmp ne ptr %220, null
  br i1 %221, label %222, label %224

222:                                              ; preds = %218
  %223 = load ptr, ptr %25, align 8
  call void @free(ptr noundef %223) #12
  br label %224

224:                                              ; preds = %222, %218
  br label %225

225:                                              ; preds = %224, %217
  br label %226

226:                                              ; preds = %225, %199, %191
  store ptr null, ptr %195, align 8
  %227 = getelementptr inbounds nuw %"class.ncnn::Mat", ptr %195, i32 0, i32 2
  store i64 0, ptr %227, align 8
  %228 = getelementptr inbounds nuw %"class.ncnn::Mat", ptr %195, i32 0, i32 3
  store i32 0, ptr %228, align 8
  %229 = getelementptr inbounds nuw %"class.ncnn::Mat", ptr %195, i32 0, i32 5
  store i32 0, ptr %229, align 8
  %230 = getelementptr inbounds nuw %"class.ncnn::Mat", ptr %195, i32 0, i32 6
  store i32 0, ptr %230, align 4
  %231 = getelementptr inbounds nuw %"class.ncnn::Mat", ptr %195, i32 0, i32 7
  store i32 0, ptr %231, align 8
  %232 = getelementptr inbounds nuw %"class.ncnn::Mat", ptr %195, i32 0, i32 8
  store i32 0, ptr %232, align 4
  %233 = getelementptr inbounds nuw %"class.ncnn::Mat", ptr %195, i32 0, i32 9
  store i32 0, ptr %233, align 8
  %234 = getelementptr inbounds nuw %"class.ncnn::Mat", ptr %195, i32 0, i32 10
  store i64 0, ptr %234, align 8
  %235 = getelementptr inbounds nuw %"class.ncnn::Mat", ptr %195, i32 0, i32 1
  store ptr null, ptr %235, align 8
  br label %239

236:                                              ; preds = %210
  %237 = landingpad { ptr, i32 }
          catch ptr null
  %238 = extractvalue { ptr, i32 } %237, 0
  call void @__clang_call_terminate(ptr %238) #13
  unreachable

239:                                              ; preds = %226
  store ptr %193, ptr %37, align 8
  %240 = load ptr, ptr %37, align 8
  %241 = load ptr, ptr %37, align 8
  %242 = load i32, ptr %35, align 4
  %243 = load i32, ptr %32, align 4
  call void @_ZN4ncnnL16binary_op_vectorEPKfS1_Pfiiiii(ptr noundef %240, ptr noundef %31, ptr noundef %241, i32 noundef %242, i32 noundef 1, i32 noundef 1, i32 noundef 1, i32 noundef %243)
  br label %244

244:                                              ; preds = %239
  %245 = load i32, ptr %36, align 4
  %246 = add nsw i32 %245, 1
  store i32 %246, ptr %36, align 4
  br label %57, !llvm.loop !58

247:                                              ; preds = %57
  ret void
}

; Function Attrs: mustprogress uwtable
define hidden noundef i32 @_ZNK4ncnn19BinaryOp_x86_avx51215forward_inplaceERNS_3MatERKNS_6OptionE(ptr noundef nonnull align 8 dereferenceable(220) %0, ptr noundef nonnull align 8 dereferenceable(72) %1, ptr noundef nonnull align 8 dereferenceable(64) %2) unnamed_addr #0 align 2 {
  %4 = alloca ptr, align 8
  %5 = alloca ptr, align 8
  %6 = alloca ptr, align 8
  store ptr %0, ptr %4, align 8
  store ptr %1, ptr %5, align 8
  store ptr %2, ptr %6, align 8
  %7 = load ptr, ptr %4, align 8
  %8 = load ptr, ptr %5, align 8
  %9 = getelementptr inbounds nuw %"class.ncnn::BinaryOp", ptr %7, i32 0, i32 3
  %10 = load float, ptr %9, align 8
  %11 = getelementptr inbounds nuw %"class.ncnn::BinaryOp", ptr %7, i32 0, i32 1
  %12 = load i32, ptr %11, align 8
  %13 = load ptr, ptr %6, align 8
  call void @_ZN4ncnnL24binary_op_scalar_inplaceERNS_3MatEfiRKNS_6OptionE(ptr noundef nonnull align 8 dereferenceable(72) %8, float noundef nofpclass(nan inf) %10, i32 noundef %12, ptr noundef nonnull align 8 dereferenceable(64) %13)
  ret i32 0
}