; Function Attrs: mustprogress nofree nosync nounwind memory(readwrite, inaccessiblemem: none) uwtable
define hidden noundef i32 @_ZNK4ncnn19BinaryOp_x86_avx51215forward_inplaceERNS_3MatERKNS_6OptionE(ptr nocapture noundef nonnull readonly align 8 dereferenceable(220) %0, ptr nocapture noundef nonnull readonly align 8 dereferenceable(72) %1, ptr nocapture nonnull readnone align 8 %2) unnamed_addr #2 align 2 personality ptr @__gxx_personality_v0 {
  %4 = alloca float, align 4
  %5 = getelementptr inbounds nuw i8, ptr %0, i64 216
  %6 = load float, ptr %5, align 8
  %7 = getelementptr inbounds nuw i8, ptr %0, i64 208
  %8 = load i32, ptr %7, align 8
  call void @llvm.lifetime.start.p0(i64 4, ptr nonnull %4)
  store float %6, ptr %4, align 4
  %9 = getelementptr inbounds nuw i8, ptr %1, i64 56
  %10 = load i32, ptr %9, align 8
  %11 = getelementptr inbounds nuw i8, ptr %1, i64 44
  %12 = load i32, ptr %11, align 4
  %13 = getelementptr inbounds nuw i8, ptr %1, i64 48
  %14 = load i32, ptr %13, align 8
  %15 = mul nsw i32 %14, %12
  %16 = getelementptr inbounds nuw i8, ptr %1, i64 52
  %17 = load i32, ptr %16, align 4
  %18 = mul nsw i32 %15, %17
  %19 = getelementptr inbounds nuw i8, ptr %1, i64 24
  %20 = load i32, ptr %19, align 8
  %21 = mul nsw i32 %18, %20
  %22 = icmp sgt i32 %10, 0
  br i1 %22, label %.lr.ph.i, label %_ZN4ncnnL24binary_op_scalar_inplaceERNS_3MatEfiRKNS_6OptionE.exit

.lr.ph.i:                                         ; preds = %3
  %23 = getelementptr inbounds nuw i8, ptr %1, i64 64
  %24 = getelementptr inbounds nuw i8, ptr %1, i64 16
  %wide.trip.count.i = zext nneg i32 %10 to i64
  br label %25

25:                                               ; preds = %25, %.lr.ph.i
  %indvars.iv.i = phi i64 [ 0, %.lr.ph.i ], [ %indvars.iv.next.i, %25 ]
  %26 = load ptr, ptr %1, align 8
  %27 = load i64, ptr %23, align 8
  %28 = mul i64 %27, %indvars.iv.i
  %29 = load i64, ptr %24, align 8
  %30 = mul i64 %28, %29
  %31 = getelementptr inbounds i8, ptr %26, i64 %30
  call fastcc void @_ZN4ncnnL16binary_op_vectorEPKfS1_Pfiiiii(ptr noundef %31, ptr noundef nonnull %4, ptr noundef %31, i32 noundef %21, i32 noundef 1, i32 noundef 1, i32 noundef 1, i32 noundef %8)
  %indvars.iv.next.i = add nuw nsw i64 %indvars.iv.i, 1
  %exitcond.not.i = icmp eq i64 %indvars.iv.next.i, %wide.trip.count.i
  br i1 %exitcond.not.i, label %_ZN4ncnnL24binary_op_scalar_inplaceERNS_3MatEfiRKNS_6OptionE.exit, label %25, !llvm.loop !13

_ZN4ncnnL24binary_op_scalar_inplaceERNS_3MatEfiRKNS_6OptionE.exit: ; preds = %25, %3
  call void @llvm.lifetime.end.p0(i64 4, ptr nonnull %4)
  ret i32 0
}